target datalayout = "e-m:e-p270:32:32-p271:32:32-p272:64:64-i64:64-i128:128-f80:128-n8:16:32:64-S128"
target triple = "x86_64-pc-linux-gnu"

%struct.UConverterLoadArgs = type { i32, i32, i8, i8, i16, i32, ptr, ptr, ptr }
%struct.UConverter = type { ptr, ptr, ptr, ptr, ptr, ptr, ptr, i32, i8, i8, i8, i8, i8, [7 x i8], i32, i32, i32, i32, i8, i8, i8, i8, i8, i8, i8, i8, [8 x i8], [32 x i8], [2 x i16], [2 x i16], [32 x i16], i32, [19 x i16], [31 x i8], i8, i8, i8, i32 }
%struct.SCSUData = type { [8 x i32], [8 x i32], i8, i8, i8, i8, i8, [3 x i8], i8, i8, i8, i8, [8 x i8] }

@_ZL21initialDynamicOffsets = internal constant [8 x i32] [i32 128, i32 192, i32 1024, i32 1536, i32 2304, i32 12352, i32 12448, i32 65280], align 16
@_ZL19initialWindowUse_ja = internal constant [8 x i8] c"\03\02\04\01\00\07\05\06", align 1
@_ZL16initialWindowUse = internal constant [8 x i8] c"\07\00\03\02\04\05\06\01", align 1

; Function Attrs: mustprogress nounwind uwtable
define internal void @_ZL10_SCSUResetP10UConverter21UConverterResetChoice(ptr noundef %0, i32 noundef %1) #1 {
  %3 = alloca ptr, align 8
  %4 = alloca i32, align 4
  %5 = alloca ptr, align 8
  store ptr %0, ptr %3, align 8, !tbaa !3
  store i32 %1, ptr %4, align 4, !tbaa !29
  call void @llvm.lifetime.start.p0(i64 8, ptr %5) #7
  %6 = load ptr, ptr %3, align 8, !tbaa !3
  %7 = getelementptr inbounds nuw %struct.UConverter, ptr %6, i32 0, i32 2
  %8 = load ptr, ptr %7, align 8, !tbaa !16
  store ptr %8, ptr %5, align 8, !tbaa !31
  %9 = load i32, ptr %4, align 4, !tbaa !29
  %10 = icmp sle i32 %9, 1
  br i1 %10, label %11, label %30

11:                                               ; preds = %2
  br label %12

12:                                               ; preds = %11
  %13 = load ptr, ptr %5, align 8, !tbaa !31
  %14 = getelementptr inbounds nuw %struct.SCSUData, ptr %13, i32 0, i32 0
  %15 = getelementptr inbounds [8 x i32], ptr %14, i64 0, i64 0
  call void @llvm.memcpy.p0.p0.i64(ptr align 4 %15, ptr align 16 @_ZL21initialDynamicOffsets, i64 32, i1 false)
  br label %16

16:                                               ; preds = %12
  br label %17

17:                                               ; preds = %16
  %18 = load ptr, ptr %5, align 8, !tbaa !31
  %19 = getelementptr inbounds nuw %struct.SCSUData, ptr %18, i32 0, i32 2
  store i8 1, ptr %19, align 4, !tbaa !33
  %20 = load ptr, ptr %5, align 8, !tbaa !31
  %21 = getelementptr inbounds nuw %struct.SCSUData, ptr %20, i32 0, i32 3
  store i8 0, ptr %21, align 1, !tbaa !34
  %22 = load ptr, ptr %5, align 8, !tbaa !31
  %23 = getelementptr inbounds nuw %struct.SCSUData, ptr %22, i32 0, i32 5
  store i8 0, ptr %23, align 1, !tbaa !35
  %24 = load ptr, ptr %5, align 8, !tbaa !31
  %25 = getelementptr inbounds nuw %struct.SCSUData, ptr %24, i32 0, i32 4
  store i8 0, ptr %25, align 2, !tbaa !36
  %26 = load ptr, ptr %5, align 8, !tbaa !31
  %27 = getelementptr inbounds nuw %struct.SCSUData, ptr %26, i32 0, i32 6
  store i8 0, ptr %27, align 4, !tbaa !37
  %28 = load ptr, ptr %3, align 8, !tbaa !3
  %29 = getelementptr inbounds nuw %struct.UConverter, ptr %28, i32 0, i32 12
  store i8 0, ptr %29, align 8, !tbaa !38
  br label %30

30:                                               ; preds = %17, %2
  %31 = load i32, ptr %4, align 4, !tbaa !29
  %32 = icmp ne i32 %31, 1
  br i1 %32, label %33, label %67

33:                                               ; preds = %30
  br label %34

34:                                               ; preds = %33
  %35 = load ptr, ptr %5, align 8, !tbaa !31
  %36 = getelementptr inbounds nuw %struct.SCSUData, ptr %35, i32 0, i32 1
  %37 = getelementptr inbounds [8 x i32], ptr %36, i64 0, i64 0
  call void @llvm.memcpy.p0.p0.i64(ptr align 4 %37, ptr align 16 @_ZL21initialDynamicOffsets, i64 32, i1 false)
  br label %38

38:                                               ; preds = %34
  br label %39

39:                                               ; preds = %38
  %40 = load ptr, ptr %5, align 8, !tbaa !31
  %41 = getelementptr inbounds nuw %struct.SCSUData, ptr %40, i32 0, i32 8
  store i8 1, ptr %41, align 4, !tbaa !39
  %42 = load ptr, ptr %5, align 8, !tbaa !31
  %43 = getelementptr inbounds nuw %struct.SCSUData, ptr %42, i32 0, i32 9
  store i8 0, ptr %43, align 1, !tbaa !40
  %44 = load ptr, ptr %5, align 8, !tbaa !31
  %45 = getelementptr inbounds nuw %struct.SCSUData, ptr %44, i32 0, i32 11
  store i8 0, ptr %45, align 1, !tbaa !41
  %46 = load ptr, ptr %5, align 8, !tbaa !31
  %47 = getelementptr inbounds nuw %struct.SCSUData, ptr %46, i32 0, i32 10
  %48 = load i8, ptr %47, align 2, !tbaa !21
  %49 = zext i8 %48 to i32
  switch i32 %49, label %57 [
    i32 1, label %50
  ]

50:                                               ; preds = %39
  br label %51

51:                                               ; preds = %50
  %52 = load ptr, ptr %5, align 8, !tbaa !31
  %53 = getelementptr inbounds nuw %struct.SCSUData, ptr %52, i32 0, i32 12
  %54 = getelementptr inbounds [8 x i8], ptr %53, i64 0, i64 0
  call void @llvm.memcpy.p0.p0.i64(ptr align 4 %54, ptr align 1 @_ZL19initialWindowUse_ja, i64 8, i1 false)
  br label %55

55:                                               ; preds = %51
  br label %56

56:                                               ; preds = %55
  br label %64

57:                                               ; preds = %39
  br label %58

58:                                               ; preds = %57
  %59 = load ptr, ptr %5, align 8, !tbaa !31
  %60 = getelementptr inbounds nuw %struct.SCSUData, ptr %59, i32 0, i32 12
  %61 = getelementptr inbounds [8 x i8], ptr %60, i64 0, i64 0
  call void @llvm.memcpy.p0.p0.i64(ptr align 4 %61, ptr align 1 @_ZL16initialWindowUse, i64 8, i1 false)
  br label %62

62:                                               ; preds = %58
  br label %63

63:                                               ; preds = %62
  br label %64

64:                                               ; preds = %63, %56
  %65 = load ptr, ptr %3, align 8, !tbaa !3
  %66 = getelementptr inbounds nuw %struct.UConverter, ptr %65, i32 0, i32 17
  store i32 0, ptr %66, align 4, !tbaa !42
  br label %67

67:                                               ; preds = %64, %30
  call void @llvm.lifetime.end.p0(i64 8, ptr %5) #7
  ret void
}

; Function Attrs: mustprogress uwtable
define internal void @_ZL9_SCSUOpenP10UConverterP18UConverterLoadArgsP10UErrorCode(ptr noundef %0, ptr noundef %1, ptr noundef %2) #0 {
  %4 = alloca ptr, align 8
  %5 = alloca ptr, align 8
  %6 = alloca ptr, align 8
  %7 = alloca ptr, align 8
  %8 = alloca i32, align 4
  store ptr %0, ptr %4, align 8, !tbaa !3
  store ptr %1, ptr %5, align 8, !tbaa !8
  store ptr %2, ptr %6, align 8, !tbaa !8
  call void @llvm.lifetime.start.p0(i64 8, ptr %7) #7
  %9 = load ptr, ptr %5, align 8, !tbaa !8
  %10 = getelementptr inbounds nuw %struct.UConverterLoadArgs, ptr %9, i32 0, i32 8
  %11 = load ptr, ptr %10, align 8, !tbaa !9
  store ptr %11, ptr %7, align 8, !tbaa !14
  %12 = load ptr, ptr %5, align 8, !tbaa !8
  %13 = getelementptr inbounds nuw %struct.UConverterLoadArgs, ptr %12, i32 0, i32 2
  %14 = load i8, ptr %13, align 8, !tbaa !15
  %15 = icmp ne i8 %14, 0
  br i1 %15, label %16, label %17

16:                                               ; preds = %3
  store i32 1, ptr %8, align 4
  br label %72

17:                                               ; preds = %3
  %18 = call noalias ptr @uprv_malloc_77(i64 noundef 84) #8
  %19 = load ptr, ptr %4, align 8, !tbaa !3
  %20 = getelementptr inbounds nuw %struct.UConverter, ptr %19, i32 0, i32 2
  store ptr %18, ptr %20, align 8, !tbaa !16
  %21 = load ptr, ptr %4, align 8, !tbaa !3
  %22 = getelementptr inbounds nuw %struct.UConverter, ptr %21, i32 0, i32 2
  %23 = load ptr, ptr %22, align 8, !tbaa !16
  %24 = icmp ne ptr %23, null
  br i1 %24, label %25, label %64

25:                                               ; preds = %17
  %26 = load ptr, ptr %7, align 8, !tbaa !14
  %27 = icmp ne ptr %26, null
  br i1 %27, label %28, label %57

28:                                               ; preds = %25
  %29 = load ptr, ptr %7, align 8, !tbaa !14
  %30 = getelementptr inbounds i8, ptr %29, i64 0
  %31 = load i8, ptr %30, align 1, !tbaa !20
  %32 = sext i8 %31 to i32
  %33 = icmp eq i32 %32, 106
  br i1 %33, label %34, label %57

34:                                               ; preds = %28
  %35 = load ptr, ptr %7, align 8, !tbaa !14
  %36 = getelementptr inbounds i8, ptr %35, i64 1
  %37 = load i8, ptr %36, align 1, !tbaa !20
  %38 = sext i8 %37 to i32
  %39 = icmp eq i32 %38, 97
  br i1 %39, label %40, label %57

40:                                               ; preds = %34
  %41 = load ptr, ptr %7, align 8, !tbaa !14
  %42 = getelementptr inbounds i8, ptr %41, i64 2
  %43 = load i8, ptr %42, align 1, !tbaa !20
  %44 = sext i8 %43 to i32
  %45 = icmp eq i32 %44, 0
  br i1 %45, label %52, label %46

46:                                               ; preds = %40
  %47 = load ptr, ptr %7, align 8, !tbaa !14
  %48 = getelementptr inbounds i8, ptr %47, i64 2
  %49 = load i8, ptr %48, align 1, !tbaa !20
  %50 = sext i8 %49 to i32
  %51 = icmp eq i32 %50, 95
  br i1 %51, label %52, label %57

52:                                               ; preds = %46, %40
  %53 = load ptr, ptr %4, align 8, !tbaa !3
  %54 = getelementptr inbounds nuw %struct.UConverter, ptr %53, i32 0, i32 2
  %55 = load ptr, ptr %54, align 8, !tbaa !16
  %56 = getelementptr inbounds nuw %struct.SCSUData, ptr %55, i32 0, i32 10
  store i8 1, ptr %56, align 2, !tbaa !21
  br label %62

57:                                               ; preds = %46, %34, %28, %25
  %58 = load ptr, ptr %4, align 8, !tbaa !3
  %59 = getelementptr inbounds nuw %struct.UConverter, ptr %58, i32 0, i32 2
  %60 = load ptr, ptr %59, align 8, !tbaa !16
  %61 = getelementptr inbounds nuw %struct.SCSUData, ptr %60, i32 0, i32 10
  store i8 0, ptr %61, align 2, !tbaa !21
  br label %62

62:                                               ; preds = %57, %52
  %63 = load ptr, ptr %4, align 8, !tbaa !3
  call void @_ZL10_SCSUResetP10UConverter21UConverterResetChoice(ptr noundef %63, i32 noundef 0)
  br label %66

64:                                               ; preds = %17
  %65 = load ptr, ptr %6, align 8, !tbaa !8
  store i32 7, ptr %65, align 4, !tbaa !23
  br label %66

66:                                               ; preds = %64, %62
  %67 = load ptr, ptr %4, align 8, !tbaa !3
  %68 = getelementptr inbounds nuw %struct.UConverter, ptr %67, i32 0, i32 28
  %69 = getelementptr inbounds [2 x i16], ptr %68, i64 0, i64 0
  store i16 -3, ptr %69, align 8, !tbaa !25
  %70 = load ptr, ptr %4, align 8, !tbaa !3
  %71 = getelementptr inbounds nuw %struct.UConverter, ptr %70, i32 0, i32 19
  store i8 -1, ptr %71, align 1, !tbaa !27
  store i32 0, ptr %8, align 4
  br label %72

72:                                               ; preds = %66, %16
  call void @llvm.lifetime.end.p0(i64 8, ptr %7) #7
  %73 = load i32, ptr %8, align 4
  switch i32 %73, label %75 [
    i32 0, label %74
    i32 1, label %74
  ]

74:                                               ; preds = %72, %72
  ret void

75:                                               ; preds = %72
  unreachable
}