; Function Attrs: mustprogress uwtable
define internal void @_ZL9_SCSUOpenP10UConverterP18UConverterLoadArgsP10UErrorCode(ptr noundef writeonly captures(none) %0, ptr noundef readonly captures(none) %1, ptr noundef writeonly captures(none) %2) #0 {
  %4 = getelementptr inbounds nuw i8, ptr %1, i64 32
  %5 = load ptr, ptr %4, align 8, !tbaa !3
  %6 = getelementptr inbounds nuw i8, ptr %1, i64 8
  %7 = load i8, ptr %6, align 8, !tbaa !11
  %.not = icmp eq i8 %7, 0
  br i1 %.not, label %8, label %38

8:                                                ; preds = %3
  %9 = tail call noalias dereferenceable_or_null(84) ptr @uprv_malloc_77(i64 noundef 84) #10
  %10 = getelementptr inbounds nuw i8, ptr %0, i64 16
  store ptr %9, ptr %10, align 8, !tbaa !12
  %.not16 = icmp eq ptr %9, null
  br i1 %.not16, label %34, label %11

11:                                               ; preds = %8
  %.not17 = icmp eq ptr %5, null
  br i1 %.not17, label %22, label %12

12:                                               ; preds = %11
  %13 = load i8, ptr %5, align 1, !tbaa !16
  %14 = icmp eq i8 %13, 106
  br i1 %14, label %15, label %22

15:                                               ; preds = %12
  %16 = getelementptr inbounds nuw i8, ptr %5, i64 1
  %17 = load i8, ptr %16, align 1, !tbaa !16
  %18 = icmp eq i8 %17, 97
  br i1 %18, label %19, label %22

19:                                               ; preds = %15
  %20 = getelementptr inbounds nuw i8, ptr %5, i64 2
  %21 = load i8, ptr %20, align 1, !tbaa !16
  switch i8 %21, label %22 [
    i8 0, label %23
    i8 95, label %23
  ]

22:                                               ; preds = %19, %15, %12, %11
  br label %23

23:                                               ; preds = %19, %19, %22
  %.sink = phi i8 [ 0, %22 ], [ 1, %19 ], [ 1, %19 ]
  %cond.i = phi i64 [ 73751958669950983, %22 ], [ 433760635709555203, %19 ], [ 433760635709555203, %19 ]
  %24 = getelementptr inbounds nuw i8, ptr %9, i64 74
  store i8 %.sink, ptr %24, align 2, !tbaa !17
  tail call void @llvm.memcpy.p0.p0.i64(ptr noundef nonnull align 4 dereferenceable(32) %9, ptr noundef nonnull align 16 dereferenceable(32) @_ZL21initialDynamicOffsets, i64 32, i1 false)
  %25 = getelementptr inbounds nuw i8, ptr %9, i64 64
  store i8 1, ptr %25, align 4, !tbaa !19
  %26 = getelementptr inbounds nuw i8, ptr %9, i64 65
  %27 = getelementptr inbounds nuw i8, ptr %0, i64 64
  store i32 0, ptr %26, align 1
  store i8 0, ptr %27, align 8, !tbaa !20
  %28 = getelementptr inbounds nuw i8, ptr %9, i64 32
  tail call void @llvm.memcpy.p0.p0.i64(ptr noundef nonnull align 4 dereferenceable(32) %28, ptr noundef nonnull align 16 dereferenceable(32) @_ZL21initialDynamicOffsets, i64 32, i1 false)
  %29 = getelementptr inbounds nuw i8, ptr %9, i64 72
  store i8 1, ptr %29, align 4, !tbaa !21
  %30 = getelementptr inbounds nuw i8, ptr %9, i64 73
  store i8 0, ptr %30, align 1, !tbaa !22
  %31 = getelementptr inbounds nuw i8, ptr %9, i64 75
  store i8 0, ptr %31, align 1, !tbaa !23
  %32 = getelementptr inbounds nuw i8, ptr %9, i64 76
  store i64 %cond.i, ptr %32, align 4
  %33 = getelementptr inbounds nuw i8, ptr %0, i64 84
  store i32 0, ptr %33, align 4, !tbaa !24
  br label %35

34:                                               ; preds = %8
  store i32 7, ptr %2, align 4, !tbaa !25
  br label %35

35:                                               ; preds = %34, %23
  %36 = getelementptr inbounds nuw i8, ptr %0, i64 136
  store i16 -3, ptr %36, align 8, !tbaa !27
  %37 = getelementptr inbounds nuw i8, ptr %0, i64 89
  store i8 -1, ptr %37, align 1, !tbaa !29
  br label %38

38:                                               ; preds = %3, %35
  ret void
}